target datalayout = "e-m:e-p270:32:32-p271:32:32-p272:64:64-i64:64-i128:128-f80:128-n8:16:32:64-S128"
target triple = "x86_64-pc-linux-gnu"

%struct.Abc_Ntk_t_ = type { i32, i32, ptr, ptr, ptr, ptr, ptr, ptr, ptr, ptr, ptr, ptr, ptr, [11 x i32], i32, i32, i32, i32, ptr, i32, ptr, ptr, i32, i32, i32, double, i32, %struct.Vec_Int_t_, ptr, ptr, ptr, ptr, ptr, float, i32, ptr, ptr, ptr, ptr, ptr, ptr, ptr, ptr, ptr, ptr, ptr, ptr, ptr, ptr, ptr, ptr, ptr, ptr, ptr, ptr, ptr, ptr }
%struct.Vec_Int_t_ = type { i32, i32, ptr }
%struct.Abc_Obj_t_ = type { ptr, ptr, i32, i32, %struct.Vec_Int_t_, %struct.Vec_Int_t_, %union.anon, %union.anon.0 }
%union.anon = type { ptr }
%union.anon.0 = type { ptr }
%struct.Vec_Str_t_ = type { i32, i32, ptr }
%struct.Vec_Ptr_t_ = type { i32, i32, ptr }

; Function Attrs: inlinehint nounwind uwtable
define internal ptr @Vec_PtrEntry(ptr noundef %0, i32 noundef %1) #2 {
  %3 = alloca ptr, align 8
  %4 = alloca i32, align 4
  store ptr %0, ptr %3, align 8, !tbaa !47
  store i32 %1, ptr %4, align 4, !tbaa !12
  %5 = load ptr, ptr %3, align 8, !tbaa !47
  %6 = getelementptr inbounds nuw %struct.Vec_Ptr_t_, ptr %5, i32 0, i32 2
  %7 = load ptr, ptr %6, align 8, !tbaa !58
  %8 = load i32, ptr %4, align 4, !tbaa !12
  %9 = sext i32 %8 to i64
  %10 = getelementptr inbounds ptr, ptr %7, i64 %9
  %11 = load ptr, ptr %10, align 8, !tbaa !56
  ret ptr %11
}

; Function Attrs: inlinehint nounwind uwtable
define internal void @Vec_PtrFree(ptr noundef %0) #2 {
  %2 = alloca ptr, align 8
  store ptr %0, ptr %2, align 8, !tbaa !47
  %3 = load ptr, ptr %2, align 8, !tbaa !47
  %4 = getelementptr inbounds nuw %struct.Vec_Ptr_t_, ptr %3, i32 0, i32 2
  %5 = load ptr, ptr %4, align 8, !tbaa !58
  %6 = icmp ne ptr %5, null
  br i1 %6, label %7, label %13

7:                                                ; preds = %1
  %8 = load ptr, ptr %2, align 8, !tbaa !47
  %9 = getelementptr inbounds nuw %struct.Vec_Ptr_t_, ptr %8, i32 0, i32 2
  %10 = load ptr, ptr %9, align 8, !tbaa !58
  call void @free(ptr noundef %10) #10
  %11 = load ptr, ptr %2, align 8, !tbaa !47
  %12 = getelementptr inbounds nuw %struct.Vec_Ptr_t_, ptr %11, i32 0, i32 2
  store ptr null, ptr %12, align 8, !tbaa !58
  br label %14

13:                                               ; preds = %1
  br label %14

14:                                               ; preds = %13, %7
  %15 = load ptr, ptr %2, align 8, !tbaa !47
  %16 = icmp ne ptr %15, null
  br i1 %16, label %17, label %19

17:                                               ; preds = %14
  %18 = load ptr, ptr %2, align 8, !tbaa !47
  call void @free(ptr noundef %18) #10
  store ptr null, ptr %2, align 8, !tbaa !47
  br label %20

19:                                               ; preds = %14
  br label %20

20:                                               ; preds = %19, %17
  ret void
}

; Function Attrs: inlinehint nounwind uwtable
define internal void @Vec_StrFree(ptr noundef %0) #2 {
  %2 = alloca ptr, align 8
  store ptr %0, ptr %2, align 8, !tbaa !10
  %3 = load ptr, ptr %2, align 8, !tbaa !10
  %4 = getelementptr inbounds nuw %struct.Vec_Str_t_, ptr %3, i32 0, i32 2
  %5 = load ptr, ptr %4, align 8, !tbaa !46
  %6 = icmp ne ptr %5, null
  br i1 %6, label %7, label %13

7:                                                ; preds = %1
  %8 = load ptr, ptr %2, align 8, !tbaa !10
  %9 = getelementptr inbounds nuw %struct.Vec_Str_t_, ptr %8, i32 0, i32 2
  %10 = load ptr, ptr %9, align 8, !tbaa !46
  call void @free(ptr noundef %10) #10
  %11 = load ptr, ptr %2, align 8, !tbaa !10
  %12 = getelementptr inbounds nuw %struct.Vec_Str_t_, ptr %11, i32 0, i32 2
  store ptr null, ptr %12, align 8, !tbaa !46
  br label %14

13:                                               ; preds = %1
  br label %14

14:                                               ; preds = %13, %7
  %15 = load ptr, ptr %2, align 8, !tbaa !10
  %16 = icmp ne ptr %15, null
  br i1 %16, label %17, label %19

17:                                               ; preds = %14
  %18 = load ptr, ptr %2, align 8, !tbaa !10
  call void @free(ptr noundef %18) #10
  store ptr null, ptr %2, align 8, !tbaa !10
  br label %20

19:                                               ; preds = %14
  br label %20

20:                                               ; preds = %19, %17
  ret void
}

; Function Attrs: inlinehint nounwind uwtable
define internal i32 @Abc_ObjIsNode(ptr noundef %0) #2 {
  %2 = alloca ptr, align 8
  store ptr %0, ptr %2, align 8, !tbaa !29
  %3 = load ptr, ptr %2, align 8, !tbaa !29
  %4 = getelementptr inbounds nuw %struct.Abc_Obj_t_, ptr %3, i32 0, i32 3
  %5 = load i32, ptr %4, align 4
  %6 = and i32 %5, 15
  %7 = icmp eq i32 %6, 7
  %8 = zext i1 %7 to i32
  ret i32 %8
}

; Function Attrs: inlinehint nounwind uwtable
define internal ptr @Abc_NtkObj(ptr noundef %0, i32 noundef %1) #2 {
  %3 = alloca ptr, align 8
  %4 = alloca i32, align 4
  store ptr %0, ptr %3, align 8, !tbaa !3
  store i32 %1, ptr %4, align 4, !tbaa !12
  %5 = load ptr, ptr %3, align 8, !tbaa !3
  %6 = getelementptr inbounds nuw %struct.Abc_Ntk_t_, ptr %5, i32 0, i32 5
  %7 = load ptr, ptr %6, align 8, !tbaa !14
  %8 = load i32, ptr %4, align 4, !tbaa !12
  %9 = call ptr @Vec_PtrEntry(ptr noundef %7, i32 noundef %8)
  ret ptr %9
}

; Function Attrs: inlinehint nounwind uwtable
define internal i32 @Vec_PtrSize(ptr noundef %0) #2 {
  %2 = alloca ptr, align 8
  store ptr %0, ptr %2, align 8, !tbaa !47
  %3 = load ptr, ptr %2, align 8, !tbaa !47
  %4 = getelementptr inbounds nuw %struct.Vec_Ptr_t_, ptr %3, i32 0, i32 1
  %5 = load i32, ptr %4, align 4, !tbaa !48
  ret i32 %5
}

; Function Attrs: inlinehint nounwind uwtable
define internal ptr @Vec_StrAlloc(i32 noundef %0) #2 {
  %2 = alloca i32, align 4
  %3 = alloca ptr, align 8
  store i32 %0, ptr %2, align 4, !tbaa !12
  call void @llvm.lifetime.start.p0(i64 8, ptr %3) #10
  %4 = call noalias ptr @malloc(i64 noundef 16) #11
  store ptr %4, ptr %3, align 8, !tbaa !10
  %5 = load i32, ptr %2, align 4, !tbaa !12
  %6 = icmp sgt i32 %5, 0
  br i1 %6, label %7, label %11

7:                                                ; preds = %1
  %8 = load i32, ptr %2, align 4, !tbaa !12
  %9 = icmp slt i32 %8, 16
  br i1 %9, label %10, label %11

10:                                               ; preds = %7
  store i32 16, ptr %2, align 4, !tbaa !12
  br label %11

11:                                               ; preds = %10, %7, %1
  %12 = load ptr, ptr %3, align 8, !tbaa !10
  %13 = getelementptr inbounds nuw %struct.Vec_Str_t_, ptr %12, i32 0, i32 1
  store i32 0, ptr %13, align 4, !tbaa !43
  %14 = load i32, ptr %2, align 4, !tbaa !12
  %15 = load ptr, ptr %3, align 8, !tbaa !10
  %16 = getelementptr inbounds nuw %struct.Vec_Str_t_, ptr %15, i32 0, i32 0
  store i32 %14, ptr %16, align 8, !tbaa !45
  %17 = load ptr, ptr %3, align 8, !tbaa !10
  %18 = getelementptr inbounds nuw %struct.Vec_Str_t_, ptr %17, i32 0, i32 0
  %19 = load i32, ptr %18, align 8, !tbaa !45
  %20 = icmp ne i32 %19, 0
  br i1 %20, label %21, label %28

21:                                               ; preds = %11
  %22 = load ptr, ptr %3, align 8, !tbaa !10
  %23 = getelementptr inbounds nuw %struct.Vec_Str_t_, ptr %22, i32 0, i32 0
  %24 = load i32, ptr %23, align 8, !tbaa !45
  %25 = sext i32 %24 to i64
  %26 = mul i64 1, %25
  %27 = call noalias ptr @malloc(i64 noundef %26) #11
  br label %29

28:                                               ; preds = %11
  br label %29

29:                                               ; preds = %28, %21
  %30 = phi ptr [ %27, %21 ], [ null, %28 ]
  %31 = load ptr, ptr %3, align 8, !tbaa !10
  %32 = getelementptr inbounds nuw %struct.Vec_Str_t_, ptr %31, i32 0, i32 2
  store ptr %30, ptr %32, align 8, !tbaa !46
  %33 = load ptr, ptr %3, align 8, !tbaa !10
  call void @llvm.lifetime.end.p0(i64 8, ptr %3) #10
  ret ptr %33
}

; Function Attrs: inlinehint nounwind uwtable
define internal ptr @Vec_PtrAlloc(i32 noundef %0) #2 {
  %2 = alloca i32, align 4
  %3 = alloca ptr, align 8
  store i32 %0, ptr %2, align 4, !tbaa !12
  call void @llvm.lifetime.start.p0(i64 8, ptr %3) #10
  %4 = call noalias ptr @malloc(i64 noundef 16) #11
  store ptr %4, ptr %3, align 8, !tbaa !47
  %5 = load i32, ptr %2, align 4, !tbaa !12
  %6 = icmp sgt i32 %5, 0
  br i1 %6, label %7, label %11

7:                                                ; preds = %1
  %8 = load i32, ptr %2, align 4, !tbaa !12
  %9 = icmp slt i32 %8, 8
  br i1 %9, label %10, label %11

10:                                               ; preds = %7
  store i32 8, ptr %2, align 4, !tbaa !12
  br label %11

11:                                               ; preds = %10, %7, %1
  %12 = load ptr, ptr %3, align 8, !tbaa !47
  %13 = getelementptr inbounds nuw %struct.Vec_Ptr_t_, ptr %12, i32 0, i32 1
  store i32 0, ptr %13, align 4, !tbaa !48
  %14 = load i32, ptr %2, align 4, !tbaa !12
  %15 = load ptr, ptr %3, align 8, !tbaa !47
  %16 = getelementptr inbounds nuw %struct.Vec_Ptr_t_, ptr %15, i32 0, i32 0
  store i32 %14, ptr %16, align 8, !tbaa !57
  %17 = load ptr, ptr %3, align 8, !tbaa !47
  %18 = getelementptr inbounds nuw %struct.Vec_Ptr_t_, ptr %17, i32 0, i32 0
  %19 = load i32, ptr %18, align 8, !tbaa !57
  %20 = icmp ne i32 %19, 0
  br i1 %20, label %21, label %28

21:                                               ; preds = %11
  %22 = load ptr, ptr %3, align 8, !tbaa !47
  %23 = getelementptr inbounds nuw %struct.Vec_Ptr_t_, ptr %22, i32 0, i32 0
  %24 = load i32, ptr %23, align 8, !tbaa !57
  %25 = sext i32 %24 to i64
  %26 = mul i64 8, %25
  %27 = call noalias ptr @malloc(i64 noundef %26) #11
  br label %29

28:                                               ; preds = %11
  br label %29

29:                                               ; preds = %28, %21
  %30 = phi ptr [ %27, %21 ], [ null, %28 ]
  %31 = load ptr, ptr %3, align 8, !tbaa !47
  %32 = getelementptr inbounds nuw %struct.Vec_Ptr_t_, ptr %31, i32 0, i32 2
  store ptr %30, ptr %32, align 8, !tbaa !58
  %33 = load ptr, ptr %3, align 8, !tbaa !47
  call void @llvm.lifetime.end.p0(i64 8, ptr %3) #10
  ret ptr %33
}

; Function Attrs: nounwind uwtable
define void @Abc_NtkSortCubes(ptr noundef %0, i32 noundef %1) #0 {
  %3 = alloca ptr, align 8
  %4 = alloca i32, align 4
  %5 = alloca ptr, align 8
  %6 = alloca ptr, align 8
  %7 = alloca ptr, align 8
  %8 = alloca i32, align 4
  store ptr %0, ptr %3, align 8, !tbaa !3
  store i32 %1, ptr %4, align 4, !tbaa !12
  call void @llvm.lifetime.start.p0(i64 8, ptr %5) #10
  call void @llvm.lifetime.start.p0(i64 8, ptr %6) #10
  call void @llvm.lifetime.start.p0(i64 8, ptr %7) #10
  call void @llvm.lifetime.start.p0(i64 4, ptr %8) #10
  %9 = call ptr @Vec_PtrAlloc(i32 noundef 1000)
  store ptr %9, ptr %5, align 8, !tbaa !47
  %10 = call ptr @Vec_StrAlloc(i32 noundef 1000)
  store ptr %10, ptr %6, align 8, !tbaa !10
  store i32 0, ptr %8, align 4, !tbaa !12
  br label %11

11:                                               ; preds = %38, %2
  %12 = load i32, ptr %8, align 4, !tbaa !12
  %13 = load ptr, ptr %3, align 8, !tbaa !3
  %14 = getelementptr inbounds nuw %struct.Abc_Ntk_t_, ptr %13, i32 0, i32 5
  %15 = load ptr, ptr %14, align 8, !tbaa !14
  %16 = call i32 @Vec_PtrSize(ptr noundef %15)
  %17 = icmp slt i32 %12, %16
  br i1 %17, label %18, label %22

18:                                               ; preds = %11
  %19 = load ptr, ptr %3, align 8, !tbaa !3
  %20 = load i32, ptr %8, align 4, !tbaa !12
  %21 = call ptr @Abc_NtkObj(ptr noundef %19, i32 noundef %20)
  store ptr %21, ptr %7, align 8, !tbaa !29
  br label %22

22:                                               ; preds = %18, %11
  %23 = phi i1 [ false, %11 ], [ true, %18 ]
  br i1 %23, label %24, label %41

24:                                               ; preds = %22
  %25 = load ptr, ptr %7, align 8, !tbaa !29
  %26 = icmp eq ptr %25, null
  br i1 %26, label %31, label %27

27:                                               ; preds = %24
  %28 = load ptr, ptr %7, align 8, !tbaa !29
  %29 = call i32 @Abc_ObjIsNode(ptr noundef %28)
  %30 = icmp ne i32 %29, 0
  br i1 %30, label %32, label %31

31:                                               ; preds = %27, %24
  br label %37

32:                                               ; preds = %27
  %33 = load ptr, ptr %7, align 8, !tbaa !29
  %34 = load ptr, ptr %5, align 8, !tbaa !47
  %35 = load ptr, ptr %6, align 8, !tbaa !10
  %36 = load i32, ptr %4, align 4, !tbaa !12
  call void @Abc_NodeSortCubes(ptr noundef %33, ptr noundef %34, ptr noundef %35, i32 noundef %36)
  br label %37

37:                                               ; preds = %32, %31
  br label %38

38:                                               ; preds = %37
  %39 = load i32, ptr %8, align 4, !tbaa !12
  %40 = add nsw i32 %39, 1
  store i32 %40, ptr %8, align 4, !tbaa !12
  br label %11, !llvm.loop !101

41:                                               ; preds = %22
  %42 = load ptr, ptr %6, align 8, !tbaa !10
  call void @Vec_StrFree(ptr noundef %42)
  %43 = load ptr, ptr %5, align 8, !tbaa !47
  call void @Vec_PtrFree(ptr noundef %43)
  call void @llvm.lifetime.end.p0(i64 4, ptr %8) #10
  call void @llvm.lifetime.end.p0(i64 8, ptr %7) #10
  call void @llvm.lifetime.end.p0(i64 8, ptr %6) #10
  call void @llvm.lifetime.end.p0(i64 8, ptr %5) #10
  ret void
}