; Function Attrs: nounwind uwtable
define void @Abc_NtkSortCubes(ptr noundef readonly captures(none) %0, i32 noundef %1) local_unnamed_addr #0 {
  %3 = tail call noalias dereferenceable_or_null(16) ptr @malloc(i64 noundef 16) #19
  %4 = getelementptr inbounds nuw i8, ptr %3, i64 4
  store i32 0, ptr %4, align 4, !tbaa !31
  store i32 1000, ptr %3, align 8, !tbaa !44
  %5 = tail call noalias dereferenceable_or_null(8000) ptr @malloc(i64 noundef 8000) #19
  %6 = getelementptr inbounds nuw i8, ptr %3, i64 8
  store ptr %5, ptr %6, align 8, !tbaa !33
  %7 = tail call noalias dereferenceable_or_null(16) ptr @malloc(i64 noundef 16) #19
  %8 = getelementptr inbounds nuw i8, ptr %7, i64 4
  store i32 0, ptr %8, align 4, !tbaa !12
  store i32 1000, ptr %7, align 8, !tbaa !15
  %9 = tail call noalias dereferenceable_or_null(1000) ptr @malloc(i64 noundef 1000) #19
  %10 = getelementptr inbounds nuw i8, ptr %7, i64 8
  store ptr %9, ptr %10, align 8, !tbaa !16
  %11 = getelementptr inbounds nuw i8, ptr %0, i64 32
  %12 = load ptr, ptr %11, align 8, !tbaa !17
  %13 = getelementptr i8, ptr %12, i64 4
  %.val16 = load i32, ptr %13, align 4, !tbaa !31
  %14 = icmp sgt i32 %.val16, 0
  br i1 %14, label %.lr.ph, label %.critedge

.lr.ph:                                           ; preds = %2, %24
  %15 = phi ptr [ %25, %24 ], [ %12, %2 ]
  %indvars.iv = phi i64 [ %indvars.iv.next, %24 ], [ 0, %2 ]
  %16 = getelementptr i8, ptr %15, i64 8
  %.val13.val = load ptr, ptr %16, align 8, !tbaa !33
  %17 = getelementptr inbounds nuw ptr, ptr %.val13.val, i64 %indvars.iv
  %18 = load ptr, ptr %17, align 8, !tbaa !34
  %19 = icmp eq ptr %18, null
  br i1 %19, label %24, label %20

20:                                               ; preds = %.lr.ph
  %21 = getelementptr i8, ptr %18, i64 20
  %.val14 = load i32, ptr %21, align 4
  %22 = and i32 %.val14, 15
  %.not = icmp eq i32 %22, 7
  br i1 %.not, label %23, label %24

23:                                               ; preds = %20
  tail call void @Abc_NodeSortCubes(ptr noundef nonnull %18, ptr noundef nonnull %3, ptr noundef nonnull %7, i32 noundef %1)
  %.pre = load ptr, ptr %11, align 8, !tbaa !17
  br label %24

24:                                               ; preds = %23, %20, %.lr.ph
  %25 = phi ptr [ %.pre, %23 ], [ %15, %20 ], [ %15, %.lr.ph ]
  %indvars.iv.next = add nuw nsw i64 %indvars.iv, 1
  %26 = getelementptr i8, ptr %25, i64 4
  %.val = load i32, ptr %26, align 4, !tbaa !31
  %27 = sext i32 %.val to i64
  %28 = icmp slt i64 %indvars.iv.next, %27
  br i1 %28, label %.lr.ph, label %.critedge.loopexit, !llvm.loop !87

.critedge.loopexit:                               ; preds = %24
  %.pre19 = load ptr, ptr %10, align 8, !tbaa !16
  br label %.critedge

.critedge:                                        ; preds = %.critedge.loopexit, %2
  %29 = phi ptr [ %.pre19, %.critedge.loopexit ], [ %9, %2 ]
  %.not.i = icmp eq ptr %29, null
  br i1 %.not.i, label %Vec_StrFree.exit, label %30

30:                                               ; preds = %.critedge
  tail call void @free(ptr noundef nonnull %29) #20
  br label %Vec_StrFree.exit

Vec_StrFree.exit:                                 ; preds = %.critedge, %30
  tail call void @free(ptr noundef nonnull %7) #20
  %31 = load ptr, ptr %6, align 8, !tbaa !33
  %.not.i15 = icmp eq ptr %31, null
  br i1 %.not.i15, label %Vec_PtrFree.exit, label %32

32:                                               ; preds = %Vec_StrFree.exit
  tail call void @free(ptr noundef nonnull %31) #20
  br label %Vec_PtrFree.exit

Vec_PtrFree.exit:                                 ; preds = %Vec_StrFree.exit, %32
  tail call void @free(ptr noundef nonnull %3) #20
  ret void
}